target datalayout = "e-m:e-p270:32:32-p271:32:32-p272:64:64-i64:64-i128:128-f80:128-n8:16:32:64-S128"
target triple = "x86_64-pc-linux-gnu"

@_ZN9Arguments16_jvm_flags_arrayE = hidden global ptr null, align 8
@_ZN9Arguments14_num_jvm_flagsE = hidden global i32 0, align 4
@.str.64 = private unnamed_addr constant [4 x i8] c"%s \00", align 1

; Function Attrs: mustprogress nounwind uwtable
define hidden void @_ZN9Arguments18print_jvm_flags_onEP12outputStream(ptr noundef %0) #1 align 2 {
  %2 = alloca ptr, align 8
  %3 = alloca i32, align 4
  store ptr %0, ptr %2, align 8
  %4 = load i32, ptr @_ZN9Arguments14_num_jvm_flagsE, align 4
  %5 = icmp sgt i32 %4, 0
  br i1 %5, label %6, label %22

6:                                                ; preds = %1
  store i32 0, ptr %3, align 4
  br label %7

7:                                                ; preds = %18, %6
  %8 = load i32, ptr %3, align 4
  %9 = load i32, ptr @_ZN9Arguments14_num_jvm_flagsE, align 4
  %10 = icmp slt i32 %8, %9
  br i1 %10, label %11, label %21

11:                                               ; preds = %7
  %12 = load ptr, ptr %2, align 8
  %13 = load ptr, ptr @_ZN9Arguments16_jvm_flags_arrayE, align 8
  %14 = load i32, ptr %3, align 4
  %15 = sext i32 %14 to i64
  %16 = getelementptr inbounds ptr, ptr %13, i64 %15
  %17 = load ptr, ptr %16, align 8
  call void (ptr, ptr, ...) @_ZN12outputStream5printEPKcz(ptr noundef nonnull align 8 dereferenceable(56) %12, ptr noundef @.str.64, ptr noundef %17)
  br label %18

18:                                               ; preds = %11
  %19 = load i32, ptr %3, align 4
  %20 = add nsw i32 %19, 1
  store i32 %20, ptr %3, align 4
  br label %7, !llvm.loop !14

21:                                               ; preds = %7
  br label %22

22:                                               ; preds = %21, %1
  ret void
}